target datalayout = "e-m:e-p270:32:32-p271:32:32-p272:64:64-i64:64-i128:128-f80:128-n8:16:32:64-S128"
target triple = "x86_64-pc-linux-gnu"

%"class.cvc5::internal::NodeTemplate" = type { ptr }

; Function Attrs: mustprogress uwtable
define hidden void @_ZN4cvc58internal13preprocessing17AssertionPipeline15pushBackTrustedENS0_9TrustNodeENS0_7TrustIdEb(ptr noundef nonnull align 8 dereferenceable(232) %0, ptr noundef %1, i32 noundef %2, i1 noundef zeroext %3) #4 align 2 personality ptr @__gxx_personality_v0 {
  %5 = alloca ptr, align 8
  %6 = alloca ptr, align 8
  %7 = alloca i32, align 4
  %8 = alloca i8, align 1
  %9 = alloca %"class.cvc5::internal::NodeTemplate", align 8
  %10 = alloca ptr, align 8
  %11 = alloca i32, align 4
  store ptr %0, ptr %5, align 8, !tbaa !3
  store ptr %1, ptr %6, align 8, !tbaa !141
  store i32 %2, ptr %7, align 4, !tbaa !78
  %12 = zext i1 %3 to i8
  store i8 %12, ptr %8, align 1, !tbaa !53
  %13 = load ptr, ptr %5, align 8
  call void @_ZNK4cvc58internal9TrustNode9getProvenEv(ptr dead_on_unwind writable sret(%"class.cvc5::internal::NodeTemplate") align 8 %9, ptr noundef nonnull align 8 dereferenceable(24) %1)
  %14 = invoke noundef ptr @_ZNK4cvc58internal9TrustNode12getGeneratorEv(ptr noundef nonnull align 8 dereferenceable(24) %1)
          to label %15 unwind label %20

15:                                               ; preds = %4
  %16 = load i32, ptr %7, align 4, !tbaa !78
  %17 = load i8, ptr %8, align 1, !tbaa !53, !range !80, !noundef !81
  %18 = trunc i8 %17 to i1
  invoke void @_ZN4cvc58internal13preprocessing17AssertionPipeline9push_backENS0_12NodeTemplateILb1EEEbPNS0_14ProofGeneratorENS0_7TrustIdEb(ptr noundef nonnull align 8 dereferenceable(232) %13, ptr noundef %9, i1 noundef zeroext false, ptr noundef %14, i32 noundef %16, i1 noundef zeroext %18)
          to label %19 unwind label %20

19:                                               ; preds = %15
  call void @_ZN4cvc58internal12NodeTemplateILb1EED2Ev(ptr noundef nonnull align 8 dereferenceable(8) %9) #3
  ret void

20:                                               ; preds = %15, %4
  %21 = landingpad { ptr, i32 }
          cleanup
  %22 = extractvalue { ptr, i32 } %21, 0
  store ptr %22, ptr %10, align 8
  %23 = extractvalue { ptr, i32 } %21, 1
  store i32 %23, ptr %11, align 4
  call void @_ZN4cvc58internal12NodeTemplateILb1EED2Ev(ptr noundef nonnull align 8 dereferenceable(8) %9) #3
  br label %24

24:                                               ; preds = %20
  %25 = load ptr, ptr %10, align 8
  %26 = load i32, ptr %11, align 4
  %27 = insertvalue { ptr, i32 } poison, ptr %25, 0
  %28 = insertvalue { ptr, i32 } %27, i32 %26, 1
  resume { ptr, i32 } %28
}