; Function Attrs: mustprogress uwtable
define hidden void @_ZN4cvc58internal13preprocessing17AssertionPipeline15pushBackTrustedENS0_9TrustNodeENS0_7TrustIdEb(ptr noundef nonnull align 8 dereferenceable(232) %0, ptr noundef nonnull %1, i32 noundef %2, i1 noundef zeroext %3) local_unnamed_addr #3 align 2 personality ptr @__gxx_personality_v0 {
  %5 = alloca %"class.cvc5::internal::NodeTemplate", align 8
  call void @_ZNK4cvc58internal9TrustNode9getProvenEv(ptr dead_on_unwind nonnull writable sret(%"class.cvc5::internal::NodeTemplate") align 8 %5, ptr noundef nonnull align 8 dereferenceable(24) %1)
  %6 = invoke noundef ptr @_ZNK4cvc58internal9TrustNode12getGeneratorEv(ptr noundef nonnull align 8 dereferenceable(24) %1)
          to label %7 unwind label %22

7:                                                ; preds = %4
  invoke void @_ZN4cvc58internal13preprocessing17AssertionPipeline9push_backENS0_12NodeTemplateILb1EEEbPNS0_14ProofGeneratorENS0_7TrustIdEb(ptr noundef nonnull align 8 dereferenceable(232) %0, ptr noundef nonnull %5, i1 noundef zeroext false, ptr noundef %6, i32 noundef %2, i1 noundef zeroext %3)
          to label %8 unwind label %22

8:                                                ; preds = %7
  %9 = load ptr, ptr %5, align 8, !tbaa !11
  %10 = load i64, ptr %9, align 8
  %11 = and i64 %10, 1152920405095219200
  %.not.i.i = icmp eq i64 %11, 1152920405095219200
  br i1 %.not.i.i, label %_ZN4cvc58internal12NodeTemplateILb1EED2Ev.exit, label %12, !prof !54

12:                                               ; preds = %8
  %13 = add i64 %10, 1152920405095219200
  %14 = and i64 %13, 1152920405095219200
  %15 = and i64 %10, -1152920405095219201
  %16 = or disjoint i64 %14, %15
  store i64 %16, ptr %9, align 8
  %17 = icmp eq i64 %14, 0
  br i1 %17, label %18, label %_ZN4cvc58internal12NodeTemplateILb1EED2Ev.exit, !prof !54

18:                                               ; preds = %12
  invoke void @_ZN4cvc58internal4expr9NodeValue15markForDeletionEv(ptr noundef nonnull align 8 dereferenceable(24) %9)
          to label %_ZN4cvc58internal12NodeTemplateILb1EED2Ev.exit unwind label %19

19:                                               ; preds = %18
  %20 = landingpad { ptr, i32 }
          catch ptr null
  %21 = extractvalue { ptr, i32 } %20, 0
  call void @__clang_call_terminate(ptr %21) #25
  unreachable

_ZN4cvc58internal12NodeTemplateILb1EED2Ev.exit:   ; preds = %8, %12, %18
  ret void

22:                                               ; preds = %7, %4
  %23 = landingpad { ptr, i32 }
          cleanup
  call void @_ZN4cvc58internal12NodeTemplateILb1EED2Ev(ptr noundef nonnull align 8 dereferenceable(8) %5) #23
  resume { ptr, i32 } %23
}